Certificate:
    Data:
        Version: 3 (0x2)
        Serial Number:
            7f:d6:8f:e0:52:57:1c:4b:a0:29:32:13:fe:b4:06:e0
    Signature Algorithm: sha256WithRSAEncryption
        Issuer: CN=rasvpn
        Validity
            Not Before: Feb 27 04:43:54 2020 GMT
            Not After : Feb 11 04:43:54 2023 GMT
        Subject: CN=client
        Subject Public Key Info:
            Public Key Algorithm: rsaEncryption
                Public-Key: (2048 bit)
                Modulus:
                    00:97:53:06:8b:72:91:d0:ea:fa:26:cd:cb:e3:cd:
                    76:af:6b:75:c4:08:a0:f9:2a:03:2a:4d:46:0c:76:
                    bd:6c:77:15:cc:65:6f:63:40:59:9e:2c:b9:76:20:
                    f5:4f:e1:54:56:f0:c8:7a:00:c7:ae:78:f3:e9:89:
                    28:63:d9:fc:33:15:0e:b1:03:ad:eb:3e:ff:02:84:
                    60:b3:ae:6b:21:24:bf:6a:5d:15:31:99:e8:37:7f:
                    a2:8e:79:00:b9:2e:78:7e:49:34:12:c3:06:ad:ea:
                    8b:10:5a:2e:d0:f5:4e:ba:db:ae:86:78:92:51:f3:
                    b7:bf:6f:64:7c:49:64:51:56:43:be:2e:76:a1:4c:
                    cb:d1:e2:4d:b6:df:dc:9a:83:d4:87:a5:9c:cb:58:
                    f1:a3:3d:f9:97:ce:ee:f2:81:1f:52:fa:72:a2:57:
                    16:74:95:2d:34:25:8a:d4:b6:17:a1:4e:8f:ce:aa:
                    7c:89:c2:ba:da:3d:d5:b5:83:04:0e:1c:92:28:84:
                    60:40:cb:55:c6:ef:ad:fd:3c:87:65:29:67:68:97:
                    d9:34:bd:80:94:08:98:79:43:59:d9:f5:2d:bc:40:
                    15:4a:f5:03:6d:b1:04:41:91:6b:f0:c1:c5:3a:57:
                    f0:8d:07:18:d9:b6:a1:b4:d7:d7:62:81:01:3b:e8:
                    c7:fb
                Exponent: 65537 (0x10001)
        X509v3 extensions:
            X509v3 Basic Constraints: 
                CA:FALSE
            X509v3 Subject Key Identifier: 
                0C:88:83:6A:E6:82:F7:80:96:64:D5:B8:AC:A1:83:45:05:3C:67:0D
            X509v3 Authority Key Identifier: 
                keyid:B5:86:9F:5B:16:45:D1:56:2A:3D:A5:2D:EA:B9:91:0A:E3:0C:45:06
                DirName:/CN=rasvpn
                serial:DB:08:90:9E:28:CA:6C:88

            X509v3 Extended Key Usage: 
                TLS Web Client Authentication
            X509v3 Key Usage: 
                Digital Signature
    Signature Algorithm: sha256WithRSAEncryption
         2d:ca:e8:9f:72:80:81:ef:e6:f1:5a:f5:bc:53:86:f9:73:b0:
         a4:a1:e0:44:77:0d:90:0b:d2:69:b7:82:f3:06:78:6d:ed:1b:
         b1:e6:c5:67:76:19:4f:ba:d0:c0:28:b6:20:ef:22:96:98:0f:
         a8:3c:19:46:11:ed:19:95:4c:9f:dd:e3:fd:1a:94:79:ca:2e:
         67:1a:ea:10:2f:58:fd:7b:00:d7:03:fa:55:d9:c1:08:d4:0d:
         f4:eb:b1:e6:8a:7d:ec:14:ea:a0:8c:cc:45:35:0e:43:68:f0:
         26:12:6a:90:0d:6e:1d:b6:a9:fc:36:11:55:44:7d:65:85:fe:
         d7:03:6a:16:04:50:00:f6:da:28:26:ff:32:2b:00:b1:84:e8:
         bf:e6:7e:0d:69:35:82:6f:d5:01:27:52:35:51:7b:67:3b:88:
         c6:8b:5f:49:68:e4:95:f3:ee:8e:96:6d:91:23:cd:0d:17:5b:
         8d:62:69:5b:fc:d5:bf:ec:92:eb:d5:65:d1:f4:2f:7c:9a:73:
         af:98:bf:f2:e0:a1:db:f2:69:02:6b:35:b4:85:f1:f7:11:73:
         41:22:9e:92:66:22:65:23:05:9c:ca:ed:d1:e5:e7:58:d2:57:
         b3:39:a5:87:90:61:2c:1a:9f:5a:f8:77:9e:92:89:12:9b:99:
         da:27:16:3e
-----BEGIN CERTIFICATE-----
MIIDPzCCAiegAwIBAgIQf9aP4FJXHEugKTIT/rQG4DANBgkqhkiG9w0BAQsFADAR
MQ8wDQYDVQQDDAZyYXN2cG4wHhcNMjAwMjI3MDQ0MzU0WhcNMjMwMjExMDQ0MzU0
WjARMQ8wDQYDVQQDDAZjbGllbnQwggEiMA0GCSqGSIb3DQEBAQUAA4IBDwAwggEK
AoIBAQCXUwaLcpHQ6vomzcvjzXava3XECKD5KgMqTUYMdr1sdxXMZW9jQFmeLLl2
IPVP4VRW8Mh6AMeuePPpiShj2fwzFQ6xA63rPv8ChGCzrmshJL9qXRUxmeg3f6KO
eQC5Lnh+STQSwwat6osQWi7Q9U66266GeJJR87e/b2R8SWRRVkO+LnahTMvR4k22
39yag9SHpZzLWPGjPfmXzu7ygR9S+nKiVxZ0lS00JYrUthehTo/OqnyJwrraPdW1
gwQOHJIohGBAy1XG7639PIdlKWdol9k0vYCUCJh5Q1nZ9S28QBVK9QNtsQRBkWvw
wcU6V/CNBxjZtqG019digQE76Mf7AgMBAAGjgZIwgY8wCQYDVR0TBAIwADAdBgNV
HQ4EFgQUDIiDauaC94CWZNW4rKGDRQU8Zw0wQQYDVR0jBDowOIAUtYafWxZF0VYq
PaUt6rmRCuMMRQahFaQTMBExDzANBgNVBAMMBnJhc3ZwboIJANsIkJ4oymyIMBMG
A1UdJQQMMAoGCCsGAQUFBwMCMAsGA1UdDwQEAwIHgDANBgkqhkiG9w0BAQsFAAOC
AQEALcron3KAge/m8Vr1vFOG+XOwpKHgRHcNkAvSabeC8wZ4be0bsebFZ3YZT7rQ
wCi2IO8ilpgPqDwZRhHtGZVMn93j/RqUecouZxrqEC9Y/XsA1wP6VdnBCNQN9Oux
5op97BTqoIzMRTUOQ2jwJhJqkA1uHbap/DYRVUR9ZYX+1wNqFgRQAPbaKCb/MisA
sYTov+Z+DWk1gm/VASdSNVF7ZzuIxotfSWjklfPujpZtkSPNDRdbjWJpW/zVv+yS
69Vl0fQvfJpzr5i/8uCh2/JpAms1tIXx9xFzQSKekmYiZSMFnMrt0eXnWNJXszml
h5BhLBqfWvh3npKJEpuZ2icWPg==
-----END CERTIFICATE-----
