Certificate:
    Data:
        Version: 3 (0x2)
        Serial Number:
            d5:47:c3:85:d3:23:97:b3:52:06:11:b7:37:ef:5a:1f
    Signature Algorithm: sha256WithRSAEncryption
        Issuer: CN=rasvpn
        Validity
            Not Before: Feb 27 04:41:35 2020 GMT
            Not After : Feb 11 04:41:35 2023 GMT
        Subject: CN=rasvpn
        Subject Public Key Info:
            Public Key Algorithm: rsaEncryption
                Public-Key: (2048 bit)
                Modulus:
                    00:cf:3b:86:39:3d:e3:35:19:7f:67:7f:a8:76:8e:
                    12:3a:63:3b:21:92:16:a1:90:c2:48:43:33:40:7c:
                    0e:e9:37:b3:3d:07:08:96:f0:d4:c8:f8:28:d8:4d:
                    eb:22:ee:e8:98:bf:a7:fd:fc:62:c6:6f:04:b7:7f:
                    8f:92:5b:f3:91:d7:46:48:1a:80:10:80:aa:14:bf:
                    1e:f7:cb:e1:1f:ce:60:f5:6d:5b:2c:a0:d9:f2:a2:
                    ac:d3:35:de:23:56:cc:34:4b:e7:ed:df:7e:ee:38:
                    2d:14:11:77:da:03:43:0e:9a:53:cb:a3:50:0d:bb:
                    a6:7e:ad:ce:94:9a:73:50:5f:0e:5e:bd:8b:11:7b:
                    bb:74:40:74:f3:52:4c:b9:0e:11:f5:de:ef:57:5e:
                    8e:41:85:ee:f8:c5:52:39:c5:9d:0a:e2:bd:33:4b:
                    c7:66:ba:51:5e:67:27:23:1f:33:67:72:8b:9c:26:
                    41:0c:49:8d:80:e3:f2:f2:00:21:84:67:77:5a:38:
                    ca:67:b6:4c:c2:32:3c:62:88:b1:8d:eb:0b:92:83:
                    89:f5:2f:64:53:e4:7c:1c:cf:84:7b:56:23:08:cd:
                    ad:fb:69:ba:9b:2f:ff:0e:a8:13:bd:8a:73:e0:53:
                    46:60:54:67:a1:58:51:6d:dd:b7:7a:1d:fc:6c:71:
                    d1:61
                Exponent: 65537 (0x10001)
        X509v3 extensions:
            X509v3 Basic Constraints: 
                CA:FALSE
            X509v3 Subject Key Identifier: 
                4B:F3:50:42:C2:B9:29:5D:FC:99:F5:3E:62:11:14:2F:55:DC:34:C1
            X509v3 Authority Key Identifier: 
                keyid:B5:86:9F:5B:16:45:D1:56:2A:3D:A5:2D:EA:B9:91:0A:E3:0C:45:06
                DirName:/CN=rasvpn
                serial:DB:08:90:9E:28:CA:6C:88

            X509v3 Extended Key Usage: 
                TLS Web Server Authentication
            X509v3 Key Usage: 
                Digital Signature, Key Encipherment
            X509v3 Subject Alternative Name: 
                DNS:rasvpn
    Signature Algorithm: sha256WithRSAEncryption
         3b:c7:67:4f:25:19:dc:84:5f:d0:50:4e:6b:f5:03:d5:6f:a6:
         6e:9b:80:9e:e7:b1:5d:c0:e1:9f:57:d8:bc:2b:eb:7a:66:68:
         77:e3:5d:9e:1c:27:7d:56:58:ea:3a:a4:96:9c:ab:a6:cc:42:
         6b:71:e1:3a:06:4d:e1:53:fc:9c:7e:0c:9b:24:a8:06:7a:9e:
         69:08:4f:c2:f2:7f:37:b8:87:8a:e2:50:a1:70:a2:40:3a:d2:
         22:70:d8:82:44:db:6c:28:59:7d:76:d9:27:cd:7d:1b:18:87:
         e6:3d:88:b8:8c:ab:86:63:1d:d5:e2:16:9b:61:8c:24:90:a0:
         fe:85:59:3d:02:ca:fc:b5:19:6c:09:05:73:45:6f:b2:d5:6c:
         ad:7e:99:4a:2b:74:93:8a:61:0e:c4:e8:d4:cd:00:37:69:5f:
         da:c1:ab:55:bf:b5:71:72:61:78:2b:76:7c:ae:f3:0c:f8:ce:
         b5:1a:7f:59:3e:97:c3:19:28:17:85:de:81:73:ae:c7:d2:ca:
         fc:75:2c:96:51:9e:01:7c:9e:7c:c5:e7:77:b4:92:1b:9b:bd:
         9d:7a:50:5d:aa:df:83:3a:91:38:74:55:3e:af:7f:5e:f5:cc:
         9e:fb:77:a9:25:9c:6b:fa:b5:e8:64:b5:be:b0:c4:a6:17:23:
         b1:ac:20:10
-----BEGIN CERTIFICATE-----
MIIDUzCCAjugAwIBAgIRANVHw4XTI5ezUgYRtzfvWh8wDQYJKoZIhvcNAQELBQAw
ETEPMA0GA1UEAwwGcmFzdnBuMB4XDTIwMDIyNzA0NDEzNVoXDTIzMDIxMTA0NDEz
NVowETEPMA0GA1UEAwwGcmFzdnBuMIIBIjANBgkqhkiG9w0BAQEFAAOCAQ8AMIIB
CgKCAQEAzzuGOT3jNRl/Z3+odo4SOmM7IZIWoZDCSEMzQHwO6TezPQcIlvDUyPgo
2E3rIu7omL+n/fxixm8Et3+PklvzkddGSBqAEICqFL8e98vhH85g9W1bLKDZ8qKs
0zXeI1bMNEvn7d9+7jgtFBF32gNDDppTy6NQDbumfq3OlJpzUF8OXr2LEXu7dEB0
81JMuQ4R9d7vV16OQYXu+MVSOcWdCuK9M0vHZrpRXmcnIx8zZ3KLnCZBDEmNgOPy
8gAhhGd3WjjKZ7ZMwjI8YoixjesLkoOJ9S9kU+R8HM+Ee1YjCM2t+2m6my//DqgT
vYpz4FNGYFRnoVhRbd23eh38bHHRYQIDAQABo4GlMIGiMAkGA1UdEwQCMAAwHQYD
VR0OBBYEFEvzUELCuSld/Jn1PmIRFC9V3DTBMEEGA1UdIwQ6MDiAFLWGn1sWRdFW
Kj2lLeq5kQrjDEUGoRWkEzARMQ8wDQYDVQQDDAZyYXN2cG6CCQDbCJCeKMpsiDAT
BgNVHSUEDDAKBggrBgEFBQcDATALBgNVHQ8EBAMCBaAwEQYDVR0RBAowCIIGcmFz
dnBuMA0GCSqGSIb3DQEBCwUAA4IBAQA7x2dPJRnchF/QUE5r9QPVb6Zum4Ce57Fd
wOGfV9i8K+t6Zmh3412eHCd9VljqOqSWnKumzEJrceE6Bk3hU/ycfgybJKgGep5p
CE/C8n83uIeK4lChcKJAOtIicNiCRNtsKFl9dtknzX0bGIfmPYi4jKuGYx3V4hab
YYwkkKD+hVk9Asr8tRlsCQVzRW+y1WytfplKK3STimEOxOjUzQA3aV/awatVv7Vx
cmF4K3Z8rvMM+M61Gn9ZPpfDGSgXhd6Bc67H0sr8dSyWUZ4BfJ58xed3tJIbm72d
elBdqt+DOpE4dFU+r39e9cye+3epJZxr+rXoZLW+sMSmFyOxrCAQ
-----END CERTIFICATE-----
